; ModuleID = '1650.c'
source_filename = "1650.c"
target datalayout = "e-m:e-p270:32:32-p271:32:32-p272:64:64-i64:64-f80:128-n8:16:32:64-S128"
target triple = "x86_64-pc-linux-gnu"

@.str = private unnamed_addr constant [16 x i8] c"%lf%lf%lf%lf%lf\00", align 1
@.str.1 = private unnamed_addr constant [6 x i8] c"%.4lf\00", align 1
@.str.2 = private unnamed_addr constant [14 x i8] c"Invalid input\00", align 1

; Function Attrs: noinline nounwind uwtable
define dso_local double @abc(double %0, double %1, double %2, double %3) #0 {
  %5 = alloca double, align 8
  %6 = alloca double, align 8
  %7 = alloca double, align 8
  %8 = alloca double, align 8
  %9 = alloca double, align 8
  store double %0, double* %5, align 8
  store double %1, double* %6, align 8
  store double %2, double* %7, align 8
  store double %3, double* %8, align 8
  %10 = load double, double* %5, align 8
  %11 = load double, double* %6, align 8
  %12 = fadd double %10, %11
  %13 = load double, double* %7, align 8
  %14 = fadd double %12, %13
  %15 = load double, double* %8, align 8
  %16 = fadd double %14, %15
  %17 = fdiv double %16, 2.000000e+00
  store double %17, double* %9, align 8
  %18 = load double, double* %9, align 8
  ret double %18
}

; Function Attrs: noinline nounwind uwtable
define dso_local double @abcd(double %0, double %1, double %2, double %3, double %4) #0 {
  %6 = alloca double, align 8
  %7 = alloca double, align 8
  %8 = alloca double, align 8
  %9 = alloca double, align 8
  %10 = alloca double, align 8
  %11 = alloca double, align 8
  %12 = alloca double, align 8
  store double %0, double* %6, align 8
  store double %1, double* %7, align 8
  store double %2, double* %8, align 8
  store double %3, double* %9, align 8
  store double %4, double* %10, align 8
  %13 = load double, double* %6, align 8
  %14 = load double, double* %7, align 8
  %15 = load double, double* %8, align 8
  %16 = load double, double* %9, align 8
  %17 = call double @abc(double %13, double %14, double %15, double %16)
  store double %17, double* %12, align 8
  %18 = load double, double* %12, align 8
  %19 = load double, double* %6, align 8
  %20 = fsub double %18, %19
  %21 = load double, double* %12, align 8
  %22 = load double, double* %7, align 8
  %23 = fsub double %21, %22
  %24 = fmul double %20, %23
  %25 = load double, double* %12, align 8
  %26 = load double, double* %8, align 8
  %27 = fsub double %25, %26
  %28 = fmul double %24, %27
  %29 = load double, double* %12, align 8
  %30 = load double, double* %9, align 8
  %31 = fsub double %29, %30
  %32 = fmul double %28, %31
  %33 = load double, double* %6, align 8
  %34 = load double, double* %7, align 8
  %35 = fmul double %33, %34
  %36 = load double, double* %8, align 8
  %37 = fmul double %35, %36
  %38 = load double, double* %9, align 8
  %39 = fmul double %37, %38
  %40 = load double, double* %10, align 8
  %41 = fdiv double %40, 1.800000e+02
  %42 = fmul double %41, 3.140000e+00
  %43 = call double @cos(double %42) #3
  %44 = fmul double %39, %43
  %45 = load double, double* %10, align 8
  %46 = fdiv double %45, 1.800000e+02
  %47 = fmul double %46, 3.140000e+00
  %48 = call double @cos(double %47) #3
  %49 = fmul double %44, %48
  %50 = fsub double %32, %49
  %51 = call double @sqrt(double %50) #3
  store double %51, double* %11, align 8
  %52 = load double, double* %11, align 8
  ret double %52
}

; Function Attrs: nounwind
declare dso_local double @sqrt(double) #1

; Function Attrs: nounwind
declare dso_local double @cos(double) #1

; Function Attrs: noinline nounwind uwtable
define dso_local void @main() #0 {
  %1 = alloca double, align 8
  %2 = alloca double, align 8
  %3 = alloca double, align 8
  %4 = alloca double, align 8
  %5 = alloca double, align 8
  %6 = alloca double, align 8
  %7 = alloca double, align 8
  %8 = call i32 (i8*, ...) @__isoc99_scanf(i8* getelementptr inbounds ([16 x i8], [16 x i8]* @.str, i64 0, i64 0), double* %1, double* %2, double* %3, double* %4, double* %5)
  %9 = load double, double* %5, align 8
  %10 = fdiv double %9, 2.000000e+00
  store double %10, double* %6, align 8
  %11 = load double, double* %1, align 8
  %12 = load double, double* %2, align 8
  %13 = load double, double* %3, align 8
  %14 = load double, double* %4, align 8
  %15 = load double, double* %6, align 8
  %16 = call double @abcd(double %11, double %12, double %13, double %14, double %15)
  store double %16, double* %7, align 8
  %17 = load double, double* %7, align 8
  %18 = fcmp oge double %17, 0.000000e+00
  br i1 %18, label %19, label %22

19:                                               ; preds = %0
  %20 = load double, double* %7, align 8
  %21 = call i32 (i8*, ...) @printf(i8* getelementptr inbounds ([6 x i8], [6 x i8]* @.str.1, i64 0, i64 0), double %20)
  br label %24

22:                                               ; preds = %0
  %23 = call i32 (i8*, ...) @printf(i8* getelementptr inbounds ([14 x i8], [14 x i8]* @.str.2, i64 0, i64 0))
  br label %24

24:                                               ; preds = %22, %19
  ret void
}

declare dso_local i32 @__isoc99_scanf(i8*, ...) #2

declare dso_local i32 @printf(i8*, ...) #2


!llvm.module.flags = !{!0}
!llvm.ident = !{!1}

!0 = !{i32 1, !"wchar_size", i32 4}
!1 = !{!"clang version 10.0.0-4ubuntu1 "}
